target datalayout = "e-m:e-p270:32:32-p271:32:32-p272:64:64-i64:64-i128:128-f80:128-n8:16:32:64-S128"
target triple = "x86_64-pc-linux-gnu"

%struct.archive_read = type { %struct.archive, ptr, i32, i64, i64, %struct.archive_read_client, [16 x %struct.archive_read_filter_bidder], ptr, i32, i64, i32, i32, [16 x %struct.archive_format_descriptor], ptr, ptr, ptr, %struct.anon }
%struct.archive = type { i32, i32, ptr, i32, ptr, i32, i32, ptr, %struct.archive_string, ptr, i32, i32, ptr, ptr, i64, i64, i64, i8, i64 }
%struct.archive_string = type { ptr, i64, i64 }
%struct.archive_read_client = type { ptr, ptr, ptr, ptr, ptr, ptr, i32, i32, i64, ptr }
%struct.archive_read_filter_bidder = type { ptr, ptr, ptr }
%struct.archive_format_descriptor = type { ptr, ptr, ptr, ptr, ptr, ptr, ptr, ptr, ptr, ptr, ptr }
%struct.anon = type { ptr, ptr, i32, ptr, ptr }

@.str.33 = private unnamed_addr constant [10 x i8] c"No memory\00", align 1
@.str.34 = private unnamed_addr constant [50 x i8] c"Truncated archive detected while reading metadata\00", align 1

; Function Attrs: nounwind uwtable
define internal i64 @tar_atol_base_n(ptr noundef %0, i64 noundef %1, i32 noundef %2) #0 {
  %4 = alloca i64, align 8
  %5 = alloca ptr, align 8
  %6 = alloca i64, align 8
  %7 = alloca i32, align 4
  %8 = alloca i64, align 8
  %9 = alloca i64, align 8
  %10 = alloca i64, align 8
  %11 = alloca i64, align 8
  %12 = alloca i32, align 4
  %13 = alloca i32, align 4
  %14 = alloca i32, align 4
  store ptr %0, ptr %5, align 8, !tbaa !15
  store i64 %1, ptr %6, align 8, !tbaa !46
  store i32 %2, ptr %7, align 4, !tbaa !9
  call void @llvm.lifetime.start.p0(i64 8, ptr %8) #10
  call void @llvm.lifetime.start.p0(i64 8, ptr %9) #10
  call void @llvm.lifetime.start.p0(i64 8, ptr %10) #10
  call void @llvm.lifetime.start.p0(i64 8, ptr %11) #10
  call void @llvm.lifetime.start.p0(i64 4, ptr %12) #10
  call void @llvm.lifetime.start.p0(i64 4, ptr %13) #10
  store i64 9223372036854775807, ptr %9, align 8, !tbaa !46
  %15 = load i32, ptr %7, align 4, !tbaa !9
  %16 = sext i32 %15 to i64
  %17 = sdiv i64 9223372036854775807, %16
  store i64 %17, ptr %10, align 8, !tbaa !46
  %18 = load i32, ptr %7, align 4, !tbaa !9
  %19 = sext i32 %18 to i64
  %20 = srem i64 9223372036854775807, %19
  store i64 %20, ptr %11, align 8, !tbaa !46
  br label %21

21:                                               ; preds = %38, %3
  %22 = load i64, ptr %6, align 8, !tbaa !46
  %23 = icmp ne i64 %22, 0
  br i1 %23, label %24, label %36

24:                                               ; preds = %21
  %25 = load ptr, ptr %5, align 8, !tbaa !15
  %26 = load i8, ptr %25, align 1, !tbaa !17
  %27 = sext i8 %26 to i32
  %28 = icmp eq i32 %27, 32
  br i1 %28, label %34, label %29

29:                                               ; preds = %24
  %30 = load ptr, ptr %5, align 8, !tbaa !15
  %31 = load i8, ptr %30, align 1, !tbaa !17
  %32 = sext i8 %31 to i32
  %33 = icmp eq i32 %32, 9
  br label %34

34:                                               ; preds = %29, %24
  %35 = phi i1 [ true, %24 ], [ %33, %29 ]
  br label %36

36:                                               ; preds = %34, %21
  %37 = phi i1 [ false, %21 ], [ %35, %34 ]
  br i1 %37, label %38, label %43

38:                                               ; preds = %36
  %39 = load ptr, ptr %5, align 8, !tbaa !15
  %40 = getelementptr inbounds nuw i8, ptr %39, i32 1
  store ptr %40, ptr %5, align 8, !tbaa !15
  %41 = load i64, ptr %6, align 8, !tbaa !46
  %42 = add i64 %41, -1
  store i64 %42, ptr %6, align 8, !tbaa !46
  br label %21, !llvm.loop !86

43:                                               ; preds = %36
  store i32 1, ptr %13, align 4, !tbaa !9
  %44 = load i64, ptr %6, align 8, !tbaa !46
  %45 = icmp ne i64 %44, 0
  br i1 %45, label %46, label %64

46:                                               ; preds = %43
  %47 = load ptr, ptr %5, align 8, !tbaa !15
  %48 = load i8, ptr %47, align 1, !tbaa !17
  %49 = sext i8 %48 to i32
  %50 = icmp eq i32 %49, 45
  br i1 %50, label %51, label %64

51:                                               ; preds = %46
  store i32 -1, ptr %13, align 4, !tbaa !9
  %52 = load ptr, ptr %5, align 8, !tbaa !15
  %53 = getelementptr inbounds nuw i8, ptr %52, i32 1
  store ptr %53, ptr %5, align 8, !tbaa !15
  %54 = load i64, ptr %6, align 8, !tbaa !46
  %55 = add i64 %54, -1
  store i64 %55, ptr %6, align 8, !tbaa !46
  store i64 -9223372036854775808, ptr %9, align 8, !tbaa !46
  %56 = load i32, ptr %7, align 4, !tbaa !9
  %57 = sext i32 %56 to i64
  %58 = sdiv i64 -9223372036854775808, %57
  %59 = sub nsw i64 0, %58
  store i64 %59, ptr %10, align 8, !tbaa !46
  %60 = load i32, ptr %7, align 4, !tbaa !9
  %61 = sext i32 %60 to i64
  %62 = srem i64 -9223372036854775808, %61
  %63 = sub nsw i64 0, %62
  store i64 %63, ptr %11, align 8, !tbaa !46
  br label %64

64:                                               ; preds = %51, %46, %43
  store i64 0, ptr %8, align 8, !tbaa !46
  %65 = load i64, ptr %6, align 8, !tbaa !46
  %66 = icmp ne i64 %65, 0
  br i1 %66, label %67, label %115

67:                                               ; preds = %64
  %68 = load ptr, ptr %5, align 8, !tbaa !15
  %69 = load i8, ptr %68, align 1, !tbaa !17
  %70 = sext i8 %69 to i32
  %71 = sub nsw i32 %70, 48
  store i32 %71, ptr %12, align 4, !tbaa !9
  br label %72

72:                                               ; preds = %99, %67
  %73 = load i32, ptr %12, align 4, !tbaa !9
  %74 = icmp sge i32 %73, 0
  br i1 %74, label %75, label %82

75:                                               ; preds = %72
  %76 = load i32, ptr %12, align 4, !tbaa !9
  %77 = load i32, ptr %7, align 4, !tbaa !9
  %78 = icmp slt i32 %76, %77
  br i1 %78, label %79, label %82

79:                                               ; preds = %75
  %80 = load i64, ptr %6, align 8, !tbaa !46
  %81 = icmp ne i64 %80, 0
  br label %82

82:                                               ; preds = %79, %75, %72
  %83 = phi i1 [ false, %75 ], [ false, %72 ], [ %81, %79 ]
  br i1 %83, label %84, label %114

84:                                               ; preds = %82
  %85 = load i64, ptr %8, align 8, !tbaa !46
  %86 = load i64, ptr %10, align 8, !tbaa !46
  %87 = icmp sgt i64 %85, %86
  br i1 %87, label %97, label %88

88:                                               ; preds = %84
  %89 = load i64, ptr %8, align 8, !tbaa !46
  %90 = load i64, ptr %10, align 8, !tbaa !46
  %91 = icmp eq i64 %89, %90
  br i1 %91, label %92, label %99

92:                                               ; preds = %88
  %93 = load i32, ptr %12, align 4, !tbaa !9
  %94 = sext i32 %93 to i64
  %95 = load i64, ptr %11, align 8, !tbaa !46
  %96 = icmp sge i64 %94, %95
  br i1 %96, label %97, label %99

97:                                               ; preds = %92, %84
  %98 = load i64, ptr %9, align 8, !tbaa !46
  store i64 %98, ptr %4, align 8
  store i32 1, ptr %14, align 4
  br label %125

99:                                               ; preds = %92, %88
  %100 = load i64, ptr %8, align 8, !tbaa !46
  %101 = load i32, ptr %7, align 4, !tbaa !9
  %102 = sext i32 %101 to i64
  %103 = mul nsw i64 %100, %102
  %104 = load i32, ptr %12, align 4, !tbaa !9
  %105 = sext i32 %104 to i64
  %106 = add nsw i64 %103, %105
  store i64 %106, ptr %8, align 8, !tbaa !46
  %107 = load ptr, ptr %5, align 8, !tbaa !15
  %108 = getelementptr inbounds nuw i8, ptr %107, i32 1
  store ptr %108, ptr %5, align 8, !tbaa !15
  %109 = load i8, ptr %108, align 1, !tbaa !17
  %110 = sext i8 %109 to i32
  %111 = sub nsw i32 %110, 48
  store i32 %111, ptr %12, align 4, !tbaa !9
  %112 = load i64, ptr %6, align 8, !tbaa !46
  %113 = add i64 %112, -1
  store i64 %113, ptr %6, align 8, !tbaa !46
  br label %72, !llvm.loop !87

114:                                              ; preds = %82
  br label %115

115:                                              ; preds = %114, %64
  %116 = load i32, ptr %13, align 4, !tbaa !9
  %117 = icmp slt i32 %116, 0
  br i1 %117, label %118, label %121

118:                                              ; preds = %115
  %119 = load i64, ptr %8, align 8, !tbaa !46
  %120 = sub nsw i64 0, %119
  br label %123

121:                                              ; preds = %115
  %122 = load i64, ptr %8, align 8, !tbaa !46
  br label %123

123:                                              ; preds = %121, %118
  %124 = phi i64 [ %120, %118 ], [ %122, %121 ]
  store i64 %124, ptr %4, align 8
  store i32 1, ptr %14, align 4
  br label %125

125:                                              ; preds = %123, %97
  call void @llvm.lifetime.end.p0(i64 4, ptr %13) #10
  call void @llvm.lifetime.end.p0(i64 4, ptr %12) #10
  call void @llvm.lifetime.end.p0(i64 8, ptr %11) #10
  call void @llvm.lifetime.end.p0(i64 8, ptr %10) #10
  call void @llvm.lifetime.end.p0(i64 8, ptr %9) #10
  call void @llvm.lifetime.end.p0(i64 8, ptr %8) #10
  %126 = load i64, ptr %4, align 8
  ret i64 %126
}

; Function Attrs: nounwind uwtable
define internal i64 @tar_atol10(ptr noundef %0, i64 noundef %1) #0 {
  %3 = alloca ptr, align 8
  %4 = alloca i64, align 8
  store ptr %0, ptr %3, align 8, !tbaa !15
  store i64 %1, ptr %4, align 8, !tbaa !46
  %5 = load ptr, ptr %3, align 8, !tbaa !15
  %6 = load i64, ptr %4, align 8, !tbaa !46
  %7 = call i64 @tar_atol_base_n(ptr noundef %5, i64 noundef %6, i32 noundef 10)
  ret i64 %7
}

; Function Attrs: nounwind uwtable
define internal void @tar_flush_unconsumed(ptr noundef %0, ptr noundef %1) #0 {
  %3 = alloca ptr, align 8
  %4 = alloca ptr, align 8
  store ptr %0, ptr %3, align 8, !tbaa !11
  store ptr %1, ptr %4, align 8, !tbaa !66
  %5 = load ptr, ptr %4, align 8, !tbaa !66
  %6 = load i64, ptr %5, align 8, !tbaa !46
  %7 = icmp ne i64 %6, 0
  br i1 %7, label %8, label %14

8:                                                ; preds = %2
  %9 = load ptr, ptr %3, align 8, !tbaa !11
  %10 = load ptr, ptr %4, align 8, !tbaa !66
  %11 = load i64, ptr %10, align 8, !tbaa !46
  %12 = call i64 @__archive_read_consume(ptr noundef %9, i64 noundef %11)
  %13 = load ptr, ptr %4, align 8, !tbaa !66
  store i64 0, ptr %13, align 8, !tbaa !46
  br label %14

14:                                               ; preds = %8, %2
  ret void
}

; Function Attrs: nounwind uwtable
define internal i32 @read_bytes_to_string(ptr noundef %0, ptr noundef %1, i64 noundef %2, ptr noundef %3) #0 {
  %5 = alloca i32, align 4
  %6 = alloca ptr, align 8
  %7 = alloca ptr, align 8
  %8 = alloca i64, align 8
  %9 = alloca ptr, align 8
  %10 = alloca ptr, align 8
  %11 = alloca i32, align 4
  store ptr %0, ptr %6, align 8, !tbaa !11
  store ptr %1, ptr %7, align 8, !tbaa !110
  store i64 %2, ptr %8, align 8, !tbaa !46
  store ptr %3, ptr %9, align 8, !tbaa !66
  call void @llvm.lifetime.start.p0(i64 8, ptr %10) #10
  %12 = load ptr, ptr %7, align 8, !tbaa !110
  %13 = load i64, ptr %8, align 8, !tbaa !46
  %14 = add i64 %13, 1
  %15 = call ptr @archive_string_ensure(ptr noundef %12, i64 noundef %14)
  %16 = icmp eq ptr %15, null
  br i1 %16, label %17, label %20

17:                                               ; preds = %4
  %18 = load ptr, ptr %6, align 8, !tbaa !11
  %19 = getelementptr inbounds nuw %struct.archive_read, ptr %18, i32 0, i32 0
  call void (ptr, i32, ptr, ...) @archive_set_error(ptr noundef %19, i32 noundef 12, ptr noundef @.str.33)
  store i32 -30, ptr %5, align 4
  store i32 1, ptr %11, align 4
  br label %50

20:                                               ; preds = %4
  %21 = load ptr, ptr %6, align 8, !tbaa !11
  %22 = load ptr, ptr %9, align 8, !tbaa !66
  call void @tar_flush_unconsumed(ptr noundef %21, ptr noundef %22)
  %23 = load ptr, ptr %6, align 8, !tbaa !11
  %24 = load i64, ptr %8, align 8, !tbaa !46
  %25 = call ptr @__archive_read_ahead(ptr noundef %23, i64 noundef %24, ptr noundef null)
  store ptr %25, ptr %10, align 8, !tbaa !65
  %26 = load ptr, ptr %10, align 8, !tbaa !65
  %27 = icmp eq ptr %26, null
  br i1 %27, label %28, label %32

28:                                               ; preds = %20
  %29 = load ptr, ptr %6, align 8, !tbaa !11
  %30 = getelementptr inbounds nuw %struct.archive_read, ptr %29, i32 0, i32 0
  call void (ptr, i32, ptr, ...) @archive_set_error(ptr noundef %30, i32 noundef 22, ptr noundef @.str.34)
  %31 = load ptr, ptr %9, align 8, !tbaa !66
  store i64 0, ptr %31, align 8, !tbaa !46
  store i32 -30, ptr %5, align 4
  store i32 1, ptr %11, align 4
  br label %50

32:                                               ; preds = %20
  %33 = load ptr, ptr %7, align 8, !tbaa !110
  %34 = getelementptr inbounds nuw %struct.archive_string, ptr %33, i32 0, i32 0
  %35 = load ptr, ptr %34, align 8, !tbaa !102
  %36 = load ptr, ptr %10, align 8, !tbaa !65
  %37 = load i64, ptr %8, align 8, !tbaa !46
  call void @llvm.memcpy.p0.p0.i64(ptr align 1 %35, ptr align 1 %36, i64 %37, i1 false)
  %38 = load ptr, ptr %7, align 8, !tbaa !110
  %39 = getelementptr inbounds nuw %struct.archive_string, ptr %38, i32 0, i32 0
  %40 = load ptr, ptr %39, align 8, !tbaa !102
  %41 = load i64, ptr %8, align 8, !tbaa !46
  %42 = getelementptr inbounds nuw i8, ptr %40, i64 %41
  store i8 0, ptr %42, align 1, !tbaa !17
  %43 = load i64, ptr %8, align 8, !tbaa !46
  %44 = load ptr, ptr %7, align 8, !tbaa !110
  %45 = getelementptr inbounds nuw %struct.archive_string, ptr %44, i32 0, i32 1
  store i64 %43, ptr %45, align 8, !tbaa !103
  %46 = load i64, ptr %8, align 8, !tbaa !46
  %47 = load ptr, ptr %9, align 8, !tbaa !66
  %48 = load i64, ptr %47, align 8, !tbaa !46
  %49 = add i64 %48, %46
  store i64 %49, ptr %47, align 8, !tbaa !46
  store i32 0, ptr %5, align 4
  store i32 1, ptr %11, align 4
  br label %50

50:                                               ; preds = %32, %28, %17
  call void @llvm.lifetime.end.p0(i64 8, ptr %10) #10
  %51 = load i32, ptr %5, align 4
  ret i32 %51
}

; Function Attrs: nounwind uwtable
define internal i32 @pax_attribute_read_number(ptr noundef %0, i64 noundef %1, ptr noundef %2) #0 {
  %4 = alloca i32, align 4
  %5 = alloca ptr, align 8
  %6 = alloca i64, align 8
  %7 = alloca ptr, align 8
  %8 = alloca %struct.archive_string, align 8
  %9 = alloca i64, align 8
  %10 = alloca i32, align 4
  %11 = alloca i32, align 4
  store ptr %0, ptr %5, align 8, !tbaa !11
  store i64 %1, ptr %6, align 8, !tbaa !46
  store ptr %2, ptr %7, align 8, !tbaa !66
  call void @llvm.lifetime.start.p0(i64 24, ptr %8) #10
  call void @llvm.lifetime.start.p0(i64 8, ptr %9) #10
  store i64 0, ptr %9, align 8, !tbaa !46
  call void @llvm.lifetime.start.p0(i64 4, ptr %10) #10
  %12 = load i64, ptr %6, align 8, !tbaa !46
  %13 = icmp ugt i64 %12, 64
  br i1 %13, label %14, label %19

14:                                               ; preds = %3
  %15 = load ptr, ptr %5, align 8, !tbaa !11
  %16 = load i64, ptr %6, align 8, !tbaa !46
  %17 = call i64 @__archive_read_consume(ptr noundef %15, i64 noundef %16)
  %18 = load ptr, ptr %7, align 8, !tbaa !66
  store i64 0, ptr %18, align 8, !tbaa !46
  store i32 -30, ptr %4, align 4
  store i32 1, ptr %11, align 4
  br label %51

19:                                               ; preds = %3
  br label %20

20:                                               ; preds = %19
  %21 = getelementptr inbounds nuw %struct.archive_string, ptr %8, i32 0, i32 0
  store ptr null, ptr %21, align 8, !tbaa !102
  %22 = getelementptr inbounds nuw %struct.archive_string, ptr %8, i32 0, i32 1
  store i64 0, ptr %22, align 8, !tbaa !103
  %23 = getelementptr inbounds nuw %struct.archive_string, ptr %8, i32 0, i32 2
  store i64 0, ptr %23, align 8, !tbaa !104
  br label %24

24:                                               ; preds = %20
  br label %25

25:                                               ; preds = %24
  %26 = load ptr, ptr %5, align 8, !tbaa !11
  %27 = load i64, ptr %6, align 8, !tbaa !46
  %28 = call i32 @read_bytes_to_string(ptr noundef %26, ptr noundef %8, i64 noundef %27, ptr noundef %9)
  store i32 %28, ptr %10, align 4, !tbaa !9
  %29 = load ptr, ptr %5, align 8, !tbaa !11
  call void @tar_flush_unconsumed(ptr noundef %29, ptr noundef %9)
  %30 = load i32, ptr %10, align 4, !tbaa !9
  %31 = icmp slt i32 %30, 0
  br i1 %31, label %32, label %34

32:                                               ; preds = %25
  call void @archive_string_free(ptr noundef %8)
  %33 = load i32, ptr %10, align 4, !tbaa !9
  store i32 %33, ptr %4, align 4
  store i32 1, ptr %11, align 4
  br label %51

34:                                               ; preds = %25
  %35 = getelementptr inbounds nuw %struct.archive_string, ptr %8, i32 0, i32 0
  %36 = load ptr, ptr %35, align 8, !tbaa !102
  %37 = getelementptr inbounds nuw %struct.archive_string, ptr %8, i32 0, i32 1
  %38 = load i64, ptr %37, align 8, !tbaa !103
  %39 = call i64 @tar_atol10(ptr noundef %36, i64 noundef %38)
  %40 = load ptr, ptr %7, align 8, !tbaa !66
  store i64 %39, ptr %40, align 8, !tbaa !46
  call void @archive_string_free(ptr noundef %8)
  %41 = load ptr, ptr %7, align 8, !tbaa !66
  %42 = load i64, ptr %41, align 8, !tbaa !46
  %43 = icmp slt i64 %42, 0
  br i1 %43, label %48, label %44

44:                                               ; preds = %34
  %45 = load ptr, ptr %7, align 8, !tbaa !66
  %46 = load i64, ptr %45, align 8, !tbaa !46
  %47 = icmp eq i64 %46, 9223372036854775807
  br i1 %47, label %48, label %50

48:                                               ; preds = %44, %34
  %49 = load ptr, ptr %7, align 8, !tbaa !66
  store i64 9223372036854775807, ptr %49, align 8, !tbaa !46
  store i32 -20, ptr %4, align 4
  store i32 1, ptr %11, align 4
  br label %51

50:                                               ; preds = %44
  store i32 0, ptr %4, align 4
  store i32 1, ptr %11, align 4
  br label %51

51:                                               ; preds = %50, %48, %32, %14
  call void @llvm.lifetime.end.p0(i64 4, ptr %10) #10
  call void @llvm.lifetime.end.p0(i64 8, ptr %9) #10
  call void @llvm.lifetime.end.p0(i64 24, ptr %8) #10
  %52 = load i32, ptr %4, align 4
  ret i32 %52
}