; Function Attrs: nounwind uwtable
define internal fastcc range(i32 -30, 1) i32 @pax_attribute_read_number(ptr noundef %0, i64 noundef %1, ptr noundef nonnull captures(none) %2) unnamed_addr #0 {
  %4 = alloca %struct.archive_string, align 8
  call void @llvm.lifetime.start.p0(i64 24, ptr nonnull %4) #13
  %5 = icmp ugt i64 %1, 64
  br i1 %5, label %6, label %8

6:                                                ; preds = %3
  %7 = tail call i64 @__archive_read_consume(ptr noundef %0, i64 noundef %1) #13
  store i64 0, ptr %2, align 8, !tbaa !45
  br label %46

8:                                                ; preds = %3
  %9 = getelementptr inbounds nuw i8, ptr %4, i64 8
  %10 = add nuw nsw i64 %1, 1
  call void @llvm.memset.p0.i64(ptr noundef nonnull align 8 dereferenceable(24) %4, i8 0, i64 24, i1 false)
  %11 = call ptr @archive_string_ensure(ptr noundef nonnull %4, i64 noundef %10) #13
  %12 = icmp eq ptr %11, null
  br i1 %12, label %13, label %tar_flush_unconsumed.exit.i

13:                                               ; preds = %8
  call void (ptr, i32, ptr, ...) @archive_set_error(ptr noundef %0, i32 noundef 12, ptr noundef nonnull @.str.33) #13
  br label %tar_flush_unconsumed.exit

tar_flush_unconsumed.exit.i:                      ; preds = %8
  %14 = call ptr @__archive_read_ahead(ptr noundef %0, i64 noundef range(i64 0, 1048577) %1, ptr noundef null) #13
  %15 = icmp eq ptr %14, null
  br i1 %15, label %16, label %read_bytes_to_string.exit

16:                                               ; preds = %tar_flush_unconsumed.exit.i
  call void (ptr, i32, ptr, ...) @archive_set_error(ptr noundef %0, i32 noundef 22, ptr noundef nonnull @.str.34) #13
  br label %tar_flush_unconsumed.exit

read_bytes_to_string.exit:                        ; preds = %tar_flush_unconsumed.exit.i
  %17 = load ptr, ptr %4, align 8, !tbaa !66
  call void @llvm.memcpy.p0.p0.i64(ptr align 1 %17, ptr nonnull align 1 %14, i64 range(i64 0, 1048577) %1, i1 false)
  %18 = load ptr, ptr %4, align 8, !tbaa !66
  %19 = getelementptr inbounds nuw i8, ptr %18, i64 %1
  store i8 0, ptr %19, align 1, !tbaa !4
  store i64 %1, ptr %9, align 8, !tbaa !67
  %.not.i = icmp eq i64 %1, 0
  br i1 %.not.i, label %tar_atol10.exit, label %20

tar_flush_unconsumed.exit:                        ; preds = %16, %13
  call void @archive_string_free(ptr noundef nonnull %4) #13
  br label %46

20:                                               ; preds = %read_bytes_to_string.exit
  %21 = call i64 @__archive_read_consume(ptr noundef %0, i64 noundef %1) #13
  %.pr = load i64, ptr %9, align 8, !tbaa !67
  %.not68.i.i = icmp eq i64 %.pr, 0
  br i1 %.not68.i.i, label %tar_atol10.exit, label %.lr.ph.i.i.preheader

.lr.ph.i.i.preheader:                             ; preds = %20
  %22 = load ptr, ptr %4, align 8, !tbaa !66
  br label %.lr.ph.i.i

.lr.ph.i.i:                                       ; preds = %.lr.ph.i.i.preheader, %.critedge2.i.i
  %.04570.i.i = phi i64 [ %25, %.critedge2.i.i ], [ %.pr, %.lr.ph.i.i.preheader ]
  %.04769.i.i = phi ptr [ %24, %.critedge2.i.i ], [ %22, %.lr.ph.i.i.preheader ]
  %23 = load i8, ptr %.04769.i.i, align 1, !tbaa !4
  switch i8 %23, label %.preheader.i.i [
    i8 32, label %.critedge2.i.i
    i8 9, label %.critedge2.i.i
    i8 45, label %.critedge53.i.i
  ]

.critedge2.i.i:                                   ; preds = %.lr.ph.i.i, %.lr.ph.i.i
  %24 = getelementptr inbounds nuw i8, ptr %.04769.i.i, i64 1
  %25 = add i64 %.04570.i.i, -1
  %.not.i.i16 = icmp eq i64 %25, 0
  br i1 %.not.i.i16, label %tar_atol10.exit, label %.lr.ph.i.i, !llvm.loop !92

.critedge53.i.i:                                  ; preds = %.lr.ph.i.i
  %26 = add i64 %.04570.i.i, -1
  %.not51.i.i = icmp eq i64 %26, 0
  br i1 %.not51.i.i, label %tar_atol10.exit, label %.preheaderthread-pre-split.i.i

.preheaderthread-pre-split.i.i:                   ; preds = %.critedge53.i.i
  %27 = getelementptr inbounds nuw i8, ptr %.04769.i.i, i64 1
  %.039.in.in71.pr.i.i = load i8, ptr %27, align 1, !tbaa !4
  br label %.preheader.i.i

.preheader.i.i:                                   ; preds = %.lr.ph.i.i, %.preheaderthread-pre-split.i.i
  %.039.in.in71.i.i = phi i8 [ %.039.in.in71.pr.i.i, %.preheaderthread-pre-split.i.i ], [ %23, %.lr.ph.i.i ]
  %28 = phi i1 [ true, %.preheaderthread-pre-split.i.i ], [ false, %.lr.ph.i.i ]
  %.04096.i.i = phi i64 [ 8, %.preheaderthread-pre-split.i.i ], [ 7, %.lr.ph.i.i ]
  %.04294.i.i = phi i64 [ -9223372036854775808, %.preheaderthread-pre-split.i.i ], [ 9223372036854775807, %.lr.ph.i.i ]
  %.14693.i.i = phi i64 [ %26, %.preheaderthread-pre-split.i.i ], [ %.04570.i.i, %.lr.ph.i.i ]
  %.14892.i.i = phi ptr [ %27, %.preheaderthread-pre-split.i.i ], [ %.04769.i.i, %.lr.ph.i.i ]
  %29 = icmp sgt i8 %.039.in.in71.i.i, 47
  br i1 %29, label %.lr.ph78.i.i, label %.critedge4.i.i

.lr.ph78.i.i:                                     ; preds = %.preheader.i.i, %37
  %.03977.in.in.i.i = phi i8 [ %.039.in.in.i.i, %37 ], [ %.039.in.in71.i.i, %.preheader.i.i ]
  %.176.i.i = phi i64 [ %39, %37 ], [ 0, %.preheader.i.i ]
  %.275.i.i = phi i64 [ %41, %37 ], [ %.14693.i.i, %.preheader.i.i ]
  %.24974.i.i = phi ptr [ %40, %37 ], [ %.14892.i.i, %.preheader.i.i ]
  %.03977.in.i.i = zext nneg i8 %.03977.in.in.i.i to i32
  %.03977.i.i = add nsw i32 %.03977.in.i.i, -48
  %30 = icmp samesign ult i32 %.03977.i.i, 10
  %31 = icmp ne i64 %.275.i.i, 0
  %or.cond.i.i = select i1 %30, i1 %31, i1 false
  br i1 %or.cond.i.i, label %32, label %.critedge4.i.i

32:                                               ; preds = %.lr.ph78.i.i
  %33 = icmp sgt i64 %.176.i.i, 922337203685477580
  br i1 %33, label %tar_atol10.exit, label %34

34:                                               ; preds = %32
  %35 = icmp ne i64 %.176.i.i, 922337203685477580
  %36 = zext nneg i32 %.03977.i.i to i64
  %.not52.i.i = icmp samesign ugt i64 %.04096.i.i, %36
  %or.cond54.i.i = select i1 %35, i1 true, i1 %.not52.i.i
  br i1 %or.cond54.i.i, label %37, label %tar_atol10.exit

37:                                               ; preds = %34
  %38 = mul nsw i64 %.176.i.i, 10
  %39 = add nsw i64 %38, %36
  %40 = getelementptr inbounds nuw i8, ptr %.24974.i.i, i64 1
  %41 = add i64 %.275.i.i, -1
  %.039.in.in.i.i = load i8, ptr %40, align 1, !tbaa !4
  %42 = icmp sgt i8 %.039.in.in.i.i, 47
  br i1 %42, label %.lr.ph78.i.i, label %.critedge4.i.i, !llvm.loop !93

.critedge4.i.i:                                   ; preds = %37, %.lr.ph78.i.i, %.preheader.i.i
  %.043.i.i = phi i64 [ 0, %.preheader.i.i ], [ %.176.i.i, %.lr.ph78.i.i ], [ %39, %37 ]
  %43 = sub nsw i64 0, %.043.i.i
  %spec.select.i.i = select i1 %28, i64 %43, i64 %.043.i.i
  br label %tar_atol10.exit

tar_atol10.exit:                                  ; preds = %.critedge2.i.i, %32, %34, %read_bytes_to_string.exit, %20, %.critedge53.i.i, %.critedge4.i.i
  %.044.i.i = phi i64 [ 0, %20 ], [ 0, %.critedge53.i.i ], [ %spec.select.i.i, %.critedge4.i.i ], [ 0, %read_bytes_to_string.exit ], [ %.04294.i.i, %34 ], [ %.04294.i.i, %32 ], [ 0, %.critedge2.i.i ]
  store i64 %.044.i.i, ptr %2, align 8, !tbaa !45
  call void @archive_string_free(ptr noundef nonnull %4) #13
  %44 = load i64, ptr %2, align 8, !tbaa !45
  %or.cond = icmp ugt i64 %44, 9223372036854775806
  br i1 %or.cond, label %45, label %46

45:                                               ; preds = %tar_atol10.exit
  store i64 9223372036854775807, ptr %2, align 8, !tbaa !45
  br label %46

46:                                               ; preds = %tar_atol10.exit, %45, %tar_flush_unconsumed.exit, %6
  %.0 = phi i32 [ -30, %6 ], [ -30, %tar_flush_unconsumed.exit ], [ -20, %45 ], [ 0, %tar_atol10.exit ]
  call void @llvm.lifetime.end.p0(i64 24, ptr nonnull %4) #13
  ret i32 %.0
}